; Function Attrs: mustprogress uwtable
define noundef zeroext i1 @_ZN4dmlc2io14InputSplitBase5Chunk4LoadEPS1_m(ptr noundef nonnull align 8 dereferenceable(40) %0, ptr noundef %1, i64 noundef %2) local_unnamed_addr #3 align 2 personality ptr @__gxx_personality_v0 {
  %4 = alloca i64, align 8
  %5 = getelementptr inbounds nuw i8, ptr %0, i64 16
  %6 = add i64 %2, 1
  %7 = getelementptr inbounds nuw i8, ptr %0, i64 24
  %8 = load ptr, ptr %7, align 8, !tbaa !154
  %9 = load ptr, ptr %5, align 8, !tbaa !72
  %10 = ptrtoint ptr %8 to i64
  %11 = ptrtoint ptr %9 to i64
  %12 = sub i64 %10, %11
  %13 = ashr exact i64 %12, 2
  %14 = icmp ugt i64 %6, %13
  br i1 %14, label %15, label %17

15:                                               ; preds = %3
  %16 = sub nuw i64 %6, %13
  tail call void @_ZNSt6vectorIjSaIjEE17_M_default_appendEm(ptr noundef nonnull align 8 dereferenceable(24) %5, i64 noundef %16)
  %.pre = load ptr, ptr %7, align 8, !tbaa !154
  %.pre16 = load ptr, ptr %5, align 8, !tbaa !72
  %.pre19 = ptrtoint ptr %.pre16 to i64
  br label %_ZNSt6vectorIjSaIjEE6resizeEm.exit

17:                                               ; preds = %3
  %18 = icmp ult i64 %6, %13
  br i1 %18, label %19, label %_ZNSt6vectorIjSaIjEE6resizeEm.exit

19:                                               ; preds = %17
  %20 = getelementptr inbounds nuw i32, ptr %9, i64 %6
  %.not.i.i = icmp eq ptr %8, %20
  br i1 %.not.i.i, label %_ZNSt6vectorIjSaIjEE6resizeEm.exit, label %21

21:                                               ; preds = %19
  store ptr %20, ptr %7, align 8, !tbaa !154
  br label %_ZNSt6vectorIjSaIjEE6resizeEm.exit

_ZNSt6vectorIjSaIjEE6resizeEm.exit:               ; preds = %15, %17, %19, %21
  %.pre-phi = phi i64 [ %.pre19, %15 ], [ %11, %17 ], [ %11, %19 ], [ %11, %21 ]
  %22 = phi ptr [ %.pre16, %15 ], [ %9, %17 ], [ %9, %19 ], [ %9, %21 ]
  %23 = phi ptr [ %.pre, %15 ], [ %8, %17 ], [ %8, %19 ], [ %20, %21 ]
  call void @llvm.lifetime.start.p0(i64 8, ptr nonnull %4) #16
  %24 = ptrtoint ptr %23 to i64
  %25 = add i64 %24, -4
  %26 = sub i64 %25, %.pre-phi
  store i64 %26, ptr %4, align 8, !tbaa !32
  %27 = getelementptr inbounds i8, ptr %23, i64 -4
  store i32 0, ptr %27, align 4, !tbaa !51
  %28 = icmp eq ptr %23, %22
  %spec.select.i14 = select i1 %28, ptr null, ptr %22
  %29 = load ptr, ptr %1, align 8, !tbaa !53
  %30 = getelementptr inbounds nuw i8, ptr %29, i64 72
  %31 = load ptr, ptr %30, align 8
  %32 = call noundef zeroext i1 %31(ptr noundef nonnull align 8 dereferenceable(200) %1, ptr noundef %spec.select.i14, ptr noundef nonnull %4)
  br i1 %32, label %.lr.ph, label %_ZNSt6vectorIjSaIjEE6resizeEm.exit6.thread

.lr.ph:                                           ; preds = %_ZNSt6vectorIjSaIjEE6resizeEm.exit, %_ZNSt6vectorIjSaIjEE6resizeEm.exit6
  %33 = load i64, ptr %4, align 8, !tbaa !32
  %34 = icmp eq i64 %33, 0
  %35 = load ptr, ptr %7, align 8, !tbaa !154
  %36 = load ptr, ptr %5, align 8, !tbaa !72
  br i1 %34, label %37, label %62

37:                                               ; preds = %.lr.ph
  %38 = ptrtoint ptr %35 to i64
  %39 = ptrtoint ptr %36 to i64
  %40 = sub i64 %38, %39
  %41 = ashr exact i64 %40, 2
  %42 = ashr exact i64 %40, 1
  %43 = icmp ugt i64 %42, %41
  br i1 %43, label %44, label %46

44:                                               ; preds = %37
  %45 = sub nuw nsw i64 %42, %41
  call void @_ZNSt6vectorIjSaIjEE17_M_default_appendEm(ptr noundef nonnull align 8 dereferenceable(24) %5, i64 noundef %45)
  %.pre17 = load ptr, ptr %7, align 8, !tbaa !154
  %.pre18 = load ptr, ptr %5, align 8, !tbaa !72
  %.pre20 = ptrtoint ptr %.pre18 to i64
  br label %_ZNSt6vectorIjSaIjEE6resizeEm.exit6

46:                                               ; preds = %37
  %47 = icmp ult i64 %42, %41
  br i1 %47, label %48, label %_ZNSt6vectorIjSaIjEE6resizeEm.exit6

48:                                               ; preds = %46
  %49 = getelementptr inbounds nuw i32, ptr %36, i64 %42
  %.not.i.i5 = icmp eq ptr %35, %49
  br i1 %.not.i.i5, label %_ZNSt6vectorIjSaIjEE6resizeEm.exit6, label %50

50:                                               ; preds = %48
  store ptr %49, ptr %7, align 8, !tbaa !154
  br label %_ZNSt6vectorIjSaIjEE6resizeEm.exit6

_ZNSt6vectorIjSaIjEE6resizeEm.exit6:              ; preds = %50, %48, %46, %44
  %.pre-phi21 = phi i64 [ %39, %50 ], [ %39, %48 ], [ %39, %46 ], [ %.pre20, %44 ]
  %51 = phi ptr [ %36, %50 ], [ %36, %48 ], [ %36, %46 ], [ %.pre18, %44 ]
  %52 = phi ptr [ %49, %50 ], [ %35, %48 ], [ %35, %46 ], [ %.pre17, %44 ]
  call void @llvm.lifetime.end.p0(i64 8, ptr nonnull %4) #16
  call void @llvm.lifetime.start.p0(i64 8, ptr nonnull %4) #16
  %53 = ptrtoint ptr %52 to i64
  %54 = add i64 %53, -4
  %55 = sub i64 %54, %.pre-phi21
  store i64 %55, ptr %4, align 8, !tbaa !32
  %56 = getelementptr inbounds i8, ptr %52, i64 -4
  store i32 0, ptr %56, align 4, !tbaa !51
  %57 = icmp eq ptr %52, %51
  %spec.select.i = select i1 %57, ptr null, ptr %51
  %58 = load ptr, ptr %1, align 8, !tbaa !53
  %59 = getelementptr inbounds nuw i8, ptr %58, i64 72
  %60 = load ptr, ptr %59, align 8
  %61 = call noundef zeroext i1 %60(ptr noundef nonnull align 8 dereferenceable(200) %1, ptr noundef %spec.select.i, ptr noundef nonnull %4)
  br i1 %61, label %.lr.ph, label %_ZNSt6vectorIjSaIjEE6resizeEm.exit6.thread

62:                                               ; preds = %.lr.ph
  %63 = icmp eq ptr %35, %36
  %spec.select.i7 = select i1 %63, ptr null, ptr %36
  store ptr %spec.select.i7, ptr %0, align 8, !tbaa !155
  %64 = getelementptr inbounds nuw i8, ptr %spec.select.i7, i64 %33
  %65 = getelementptr inbounds nuw i8, ptr %0, i64 8
  store ptr %64, ptr %65, align 8, !tbaa !156
  br label %_ZNSt6vectorIjSaIjEE6resizeEm.exit6.thread

_ZNSt6vectorIjSaIjEE6resizeEm.exit6.thread:       ; preds = %_ZNSt6vectorIjSaIjEE6resizeEm.exit6, %_ZNSt6vectorIjSaIjEE6resizeEm.exit, %62
  %66 = phi i1 [ true, %62 ], [ false, %_ZNSt6vectorIjSaIjEE6resizeEm.exit ], [ false, %_ZNSt6vectorIjSaIjEE6resizeEm.exit6 ]
  call void @llvm.lifetime.end.p0(i64 8, ptr nonnull %4) #16
  ret i1 %66
}